target datalayout = "e-m:e-p270:32:32-p271:32:32-p272:64:64-i64:64-i128:128-f80:128-n8:16:32:64-S128"
target triple = "x86_64-pc-linux-gnu"

%"class.base::FilePath" = type { %"class.std::__cxx11::basic_string" }
%"class.std::__cxx11::basic_string" = type { %"struct.std::__cxx11::basic_string<char>::_Alloc_hider", i64, %union.anon }
%"struct.std::__cxx11::basic_string<char>::_Alloc_hider" = type { ptr }
%union.anon = type { i64, [8 x i8] }

; Function Attrs: mustprogress nounwind uwtable
define available_externally noundef ptr @_ZNKSt7__cxx1112basic_stringIcSt11char_traitsIcESaIcEE7_M_dataEv(ptr noundef nonnull align 8 dereferenceable(32) %0) #1 align 2 {
  %2 = alloca ptr, align 8
  store ptr %0, ptr %2, align 8, !tbaa !8
  %3 = load ptr, ptr %2, align 8
  %4 = getelementptr inbounds nuw %"class.std::__cxx11::basic_string", ptr %3, i32 0, i32 0
  %5 = getelementptr inbounds nuw %"struct.std::__cxx11::basic_string<char>::_Alloc_hider", ptr %4, i32 0, i32 0
  %6 = load ptr, ptr %5, align 8, !tbaa !161
  ret ptr %6
}

; Function Attrs: mustprogress uwtable
define noundef zeroext i1 @_ZN4base19WriteFileDescriptorEiPKci(i32 noundef %0, ptr noundef %1, i32 noundef %2) #0 {
  %4 = alloca i1, align 1
  %5 = alloca i32, align 4
  %6 = alloca ptr, align 8
  %7 = alloca i32, align 4
  %8 = alloca i64, align 8
  %9 = alloca i64, align 8
  %10 = alloca i32, align 4
  %11 = alloca i64, align 8
  %12 = alloca i64, align 8
  store i32 %0, ptr %5, align 4, !tbaa !20
  store ptr %1, ptr %6, align 8, !tbaa !12
  store i32 %2, ptr %7, align 4, !tbaa !20
  call void @llvm.lifetime.start.p0(i64 8, ptr %8) #10
  store i64 0, ptr %8, align 8, !tbaa !40
  call void @llvm.lifetime.start.p0(i64 8, ptr %9) #10
  store i64 0, ptr %9, align 8, !tbaa !40
  br label %13

13:                                               ; preds = %46, %3
  %14 = load i64, ptr %8, align 8, !tbaa !40
  %15 = load i32, ptr %7, align 4, !tbaa !20
  %16 = sext i32 %15 to i64
  %17 = icmp slt i64 %14, %16
  br i1 %17, label %19, label %18

18:                                               ; preds = %13
  store i32 2, ptr %10, align 4
  br label %50

19:                                               ; preds = %13
  call void @llvm.lifetime.start.p0(i64 8, ptr %11) #10
  br label %20

20:                                               ; preds = %37, %19
  %21 = load i32, ptr %5, align 4, !tbaa !20
  %22 = load ptr, ptr %6, align 8, !tbaa !12
  %23 = load i64, ptr %8, align 8, !tbaa !40
  %24 = getelementptr inbounds i8, ptr %22, i64 %23
  %25 = load i32, ptr %7, align 4, !tbaa !20
  %26 = sext i32 %25 to i64
  %27 = load i64, ptr %8, align 8, !tbaa !40
  %28 = sub nsw i64 %26, %27
  %29 = call i64 @write(i32 noundef %21, ptr noundef %24, i64 noundef %28)
  store i64 %29, ptr %11, align 8, !tbaa !40
  br label %30

30:                                               ; preds = %20
  %31 = load i64, ptr %11, align 8, !tbaa !40
  %32 = icmp eq i64 %31, -1
  br i1 %32, label %33, label %37

33:                                               ; preds = %30
  %34 = call ptr @__errno_location() #17
  %35 = load i32, ptr %34, align 4, !tbaa !20
  %36 = icmp eq i32 %35, 4
  br label %37

37:                                               ; preds = %33, %30
  %38 = phi i1 [ false, %30 ], [ %36, %33 ]
  br i1 %38, label %20, label %39, !llvm.loop !104

39:                                               ; preds = %37
  %40 = load i64, ptr %11, align 8, !tbaa !40
  store i64 %40, ptr %12, align 8, !tbaa !40
  call void @llvm.lifetime.end.p0(i64 8, ptr %11) #10
  %41 = load i64, ptr %12, align 8, !tbaa !40
  store i64 %41, ptr %9, align 8, !tbaa !40
  %42 = load i64, ptr %9, align 8, !tbaa !40
  %43 = icmp slt i64 %42, 0
  br i1 %43, label %44, label %45

44:                                               ; preds = %39
  store i1 false, ptr %4, align 1
  store i32 1, ptr %10, align 4
  br label %50

45:                                               ; preds = %39
  br label %46

46:                                               ; preds = %45
  %47 = load i64, ptr %9, align 8, !tbaa !40
  %48 = load i64, ptr %8, align 8, !tbaa !40
  %49 = add nsw i64 %48, %47
  store i64 %49, ptr %8, align 8, !tbaa !40
  br label %13, !llvm.loop !105

50:                                               ; preds = %44, %18
  call void @llvm.lifetime.end.p0(i64 8, ptr %9) #10
  %51 = load i32, ptr %10, align 4
  switch i32 %51, label %53 [
    i32 2, label %52
  ]

52:                                               ; preds = %50
  store i1 true, ptr %4, align 1
  store i32 1, ptr %10, align 4
  br label %53

53:                                               ; preds = %52, %50
  call void @llvm.lifetime.end.p0(i64 8, ptr %8) #10
  %54 = load i1, ptr %4, align 1
  ret i1 %54
}

; Function Attrs: mustprogress nounwind uwtable
define available_externally noundef ptr @_ZNKSt7__cxx1112basic_stringIcSt11char_traitsIcESaIcEE5c_strEv(ptr noundef nonnull align 8 dereferenceable(32) %0) #1 align 2 {
  %2 = alloca ptr, align 8
  store ptr %0, ptr %2, align 8, !tbaa !8
  %3 = load ptr, ptr %2, align 8
  %4 = call noundef ptr @_ZNKSt7__cxx1112basic_stringIcSt11char_traitsIcESaIcEE7_M_dataEv(ptr noundef nonnull align 8 dereferenceable(32) %3)
  ret ptr %4
}

; Function Attrs: mustprogress nounwind uwtable
define linkonce_odr noundef nonnull align 8 dereferenceable(32) ptr @_ZNK4base8FilePath5valueB5cxx11Ev(ptr noundef nonnull align 8 dereferenceable(32) %0) #1 comdat align 2 {
  %2 = alloca ptr, align 8
  store ptr %0, ptr %2, align 8, !tbaa !3
  %3 = load ptr, ptr %2, align 8
  %4 = getelementptr inbounds nuw %"class.base::FilePath", ptr %3, i32 0, i32 0
  ret ptr %4
}

; Function Attrs: mustprogress nounwind uwtable
define linkonce_odr void @_ZN4base18ThreadRestrictions15AssertIOAllowedEv() #1 comdat align 2 {
  ret void
}

; Function Attrs: mustprogress uwtable
define noundef i32 @_ZN4base9WriteFileERKNS_8FilePathEPKci(ptr noundef nonnull align 8 dereferenceable(32) %0, ptr noundef %1, i32 noundef %2) #0 {
  %4 = alloca i32, align 4
  %5 = alloca ptr, align 8
  %6 = alloca ptr, align 8
  %7 = alloca i32, align 4
  %8 = alloca i32, align 4
  %9 = alloca i32, align 4
  %10 = alloca i32, align 4
  %11 = alloca i32, align 4
  %12 = alloca i32, align 4
  %13 = alloca i32, align 4
  %14 = alloca i32, align 4
  store ptr %0, ptr %5, align 8, !tbaa !3
  store ptr %1, ptr %6, align 8, !tbaa !12
  store i32 %2, ptr %7, align 4, !tbaa !20
  call void @_ZN4base18ThreadRestrictions15AssertIOAllowedEv()
  call void @llvm.lifetime.start.p0(i64 4, ptr %8) #10
  call void @llvm.lifetime.start.p0(i64 4, ptr %9) #10
  br label %15

15:                                               ; preds = %27, %3
  %16 = load ptr, ptr %5, align 8, !tbaa !3
  %17 = call noundef nonnull align 8 dereferenceable(32) ptr @_ZNK4base8FilePath5valueB5cxx11Ev(ptr noundef nonnull align 8 dereferenceable(32) %16)
  %18 = call noundef ptr @_ZNKSt7__cxx1112basic_stringIcSt11char_traitsIcESaIcEE5c_strEv(ptr noundef nonnull align 8 dereferenceable(32) %17) #10
  %19 = call i32 @creat(ptr noundef %18, i32 noundef 438)
  store i32 %19, ptr %9, align 4, !tbaa !20
  br label %20

20:                                               ; preds = %15
  %21 = load i32, ptr %9, align 4, !tbaa !20
  %22 = icmp eq i32 %21, -1
  br i1 %22, label %23, label %27

23:                                               ; preds = %20
  %24 = call ptr @__errno_location() #17
  %25 = load i32, ptr %24, align 4, !tbaa !20
  %26 = icmp eq i32 %25, 4
  br label %27

27:                                               ; preds = %23, %20
  %28 = phi i1 [ false, %20 ], [ %26, %23 ]
  br i1 %28, label %15, label %29, !llvm.loop !103

29:                                               ; preds = %27
  %30 = load i32, ptr %9, align 4, !tbaa !20
  store i32 %30, ptr %10, align 4, !tbaa !20
  call void @llvm.lifetime.end.p0(i64 4, ptr %9) #10
  %31 = load i32, ptr %10, align 4, !tbaa !20
  store i32 %31, ptr %8, align 4, !tbaa !20
  %32 = load i32, ptr %8, align 4, !tbaa !20
  %33 = icmp slt i32 %32, 0
  br i1 %33, label %34, label %35

34:                                               ; preds = %29
  store i32 -1, ptr %4, align 4
  store i32 1, ptr %11, align 4
  br label %65

35:                                               ; preds = %29
  call void @llvm.lifetime.start.p0(i64 4, ptr %12) #10
  %36 = load i32, ptr %8, align 4, !tbaa !20
  %37 = load ptr, ptr %6, align 8, !tbaa !12
  %38 = load i32, ptr %7, align 4, !tbaa !20
  %39 = call noundef zeroext i1 @_ZN4base19WriteFileDescriptorEiPKci(i32 noundef %36, ptr noundef %37, i32 noundef %38)
  br i1 %39, label %40, label %42

40:                                               ; preds = %35
  %41 = load i32, ptr %7, align 4, !tbaa !20
  br label %43

42:                                               ; preds = %35
  br label %43

43:                                               ; preds = %42, %40
  %44 = phi i32 [ %41, %40 ], [ -1, %42 ]
  store i32 %44, ptr %12, align 4, !tbaa !20
  call void @llvm.lifetime.start.p0(i64 4, ptr %13) #10
  br label %45

45:                                               ; preds = %43
  %46 = load i32, ptr %8, align 4, !tbaa !20
  %47 = call i32 @close(i32 noundef %46)
  store i32 %47, ptr %13, align 4, !tbaa !20
  %48 = load i32, ptr %13, align 4, !tbaa !20
  %49 = icmp eq i32 %48, -1
  br i1 %49, label %50, label %55

50:                                               ; preds = %45
  %51 = call ptr @__errno_location() #17
  %52 = load i32, ptr %51, align 4, !tbaa !20
  %53 = icmp eq i32 %52, 4
  br i1 %53, label %54, label %55

54:                                               ; preds = %50
  store i32 0, ptr %13, align 4, !tbaa !20
  br label %55

55:                                               ; preds = %54, %50, %45
  br label %56

56:                                               ; preds = %55
  br label %57

57:                                               ; preds = %56
  %58 = load i32, ptr %13, align 4, !tbaa !20
  store i32 %58, ptr %14, align 4, !tbaa !20
  call void @llvm.lifetime.end.p0(i64 4, ptr %13) #10
  %59 = load i32, ptr %14, align 4, !tbaa !20
  %60 = icmp slt i32 %59, 0
  br i1 %60, label %61, label %62

61:                                               ; preds = %57
  store i32 -1, ptr %4, align 4
  store i32 1, ptr %11, align 4
  br label %64

62:                                               ; preds = %57
  %63 = load i32, ptr %12, align 4, !tbaa !20
  store i32 %63, ptr %4, align 4
  store i32 1, ptr %11, align 4
  br label %64

64:                                               ; preds = %62, %61
  call void @llvm.lifetime.end.p0(i64 4, ptr %12) #10
  br label %65

65:                                               ; preds = %64, %34
  call void @llvm.lifetime.end.p0(i64 4, ptr %8) #10
  %66 = load i32, ptr %4, align 4
  ret i32 %66
}