; Function Attrs: mustprogress uwtable
define noundef i32 @_ZN4base9WriteFileERKNS_8FilePathEPKci(ptr noundef nonnull readonly align 8 captures(none) dereferenceable(32) %0, ptr noundef readonly captures(none) %1, i32 noundef %2) local_unnamed_addr #0 {
  br label %4

4:                                                ; preds = %8, %3
  %5 = load ptr, ptr %0, align 8, !tbaa !3
  %6 = tail call i32 @creat(ptr noundef %5, i32 noundef 438)
  %7 = icmp eq i32 %6, -1
  br i1 %7, label %8, label %.critedge

8:                                                ; preds = %4
  %9 = tail call ptr @__errno_location() #25
  %10 = load i32, ptr %9, align 4, !tbaa !11
  %11 = icmp eq i32 %10, 4
  br i1 %11, label %4, label %.critedge.thread, !llvm.loop !89

.critedge:                                        ; preds = %4
  %12 = icmp slt i32 %6, 0
  br i1 %12, label %.critedge.thread, label %13

13:                                               ; preds = %.critedge
  %14 = sext i32 %2 to i64
  %.not23.i = icmp slt i32 %2, 1
  br i1 %.not23.i, label %_ZN4base19WriteFileDescriptorEiPKci.exit, label %.preheader.i

15:                                               ; preds = %.critedge.i
  %16 = add nuw nsw i64 %20, %.01424.i
  %.not.not.i = icmp slt i64 %16, %14
  br i1 %.not.not.i, label %.preheader.i, label %_ZN4base19WriteFileDescriptorEiPKci.exit, !llvm.loop !90

.preheader.i:                                     ; preds = %13, %15
  %.01424.i = phi i64 [ %16, %15 ], [ 0, %13 ]
  %17 = getelementptr inbounds nuw i8, ptr %1, i64 %.01424.i
  %18 = sub nsw i64 %14, %.01424.i
  br label %19

19:                                               ; preds = %22, %.preheader.i
  %20 = tail call i64 @write(i32 noundef %6, ptr noundef readonly %17, i64 noundef %18)
  %21 = icmp eq i64 %20, -1
  br i1 %21, label %22, label %.critedge.i

22:                                               ; preds = %19
  %23 = tail call ptr @__errno_location() #25
  %24 = load i32, ptr %23, align 4, !tbaa !11
  %25 = icmp eq i32 %24, 4
  br i1 %25, label %19, label %_ZN4base19WriteFileDescriptorEiPKci.exit, !llvm.loop !91

.critedge.i:                                      ; preds = %19
  %26 = icmp sgt i64 %20, -1
  br i1 %26, label %15, label %_ZN4base19WriteFileDescriptorEiPKci.exit

_ZN4base19WriteFileDescriptorEiPKci.exit:         ; preds = %15, %.critedge.i, %22, %13
  %27 = phi i32 [ %2, %13 ], [ -1, %22 ], [ %2, %15 ], [ -1, %.critedge.i ]
  %28 = tail call i32 @close(i32 noundef %6)
  %29 = icmp eq i32 %28, -1
  br i1 %29, label %30, label %34

30:                                               ; preds = %_ZN4base19WriteFileDescriptorEiPKci.exit
  %31 = tail call ptr @__errno_location() #25
  %32 = load i32, ptr %31, align 4, !tbaa !11
  %33 = icmp ne i32 %32, 4
  %spec.select = sext i1 %33 to i32
  br label %34

34:                                               ; preds = %30, %_ZN4base19WriteFileDescriptorEiPKci.exit
  %.014 = phi i32 [ %28, %_ZN4base19WriteFileDescriptorEiPKci.exit ], [ %spec.select, %30 ]
  %.inv = icmp sgt i32 %.014, -1
  %. = select i1 %.inv, i32 %27, i32 -1
  br label %.critedge.thread

.critedge.thread:                                 ; preds = %8, %.critedge, %34
  %.0 = phi i32 [ %., %34 ], [ -1, %.critedge ], [ -1, %8 ]
  ret i32 %.0
}